; Function Attrs: mustprogress nounwind uwtable
define internal void @_ZN4node9inspector8protocol4cbor12_GLOBAL__N_111CBOREncoderINSt7__cxx1112basic_stringIcSt11char_traitsIcESaIcEEEE10HandleBoolEb(ptr nocapture noundef nonnull readonly align 8 dereferenceable(48) %this, i1 noundef zeroext %value) unnamed_addr #1 align 2 {
entry:
  %status_ = getelementptr inbounds i8, ptr %this, i64 40
  %0 = load ptr, ptr %status_, align 8
  %1 = load i32, ptr %0, align 8
  %cmp.i = icmp eq i32 %1, 0
  br i1 %cmp.i, label %if.end, label %return

if.end:                                           ; preds = %entry
  %out_ = getelementptr inbounds i8, ptr %this, i64 8
  %2 = load ptr, ptr %out_, align 8
  %cond = select i1 %value, i8 -11, i8 -12
  tail call void @_ZNSt7__cxx1112basic_stringIcSt11char_traitsIcESaIcEE9push_backEc(ptr noundef nonnull align 8 dereferenceable(32) %2, i8 noundef signext %cond) #27
  br label %return

return:                                           ; preds = %entry, %if.end
  ret void
}